; Function Attrs: mustprogress nounwind uwtable
define internal void @_ZNK12_GLOBAL__N_121DefaultSimpleArgument14writeAccessorsERN4llvm11raw_ostreamE(ptr noundef nonnull align 8 dereferenceable(136) %0, ptr noundef nonnull align 8 dereferenceable(48) %1) unnamed_addr #0 align 2 {
  %3 = alloca %"class.std::__cxx11::basic_string", align 8
  %4 = alloca %"class.std::__cxx11::basic_string", align 8
  tail call void @_ZNK12_GLOBAL__N_114SimpleArgument14writeAccessorsERN4llvm11raw_ostreamE(ptr noundef nonnull align 8 dereferenceable(128) %0, ptr noundef nonnull align 8 dereferenceable(48) %1)
  %5 = getelementptr inbounds nuw i8, ptr %1, i64 24
  %6 = load ptr, ptr %5, align 8
  %7 = getelementptr inbounds nuw i8, ptr %1, i64 32
  %8 = load ptr, ptr %7, align 8
  %9 = ptrtoint ptr %6 to i64
  %10 = ptrtoint ptr %8 to i64
  %11 = sub i64 %9, %10
  %12 = icmp ult i64 %11, 17
  br i1 %12, label %13, label %15

13:                                               ; preds = %2
  %14 = tail call noundef nonnull align 8 dereferenceable(48) ptr @_ZN4llvm11raw_ostream5writeEPKcm(ptr noundef nonnull align 8 dereferenceable(48) %1, ptr noundef nonnull @.str.748, i64 noundef 17) #22
  br label %_ZN4llvm11raw_ostreamlsEPKc.exit

15:                                               ; preds = %2
  tail call void @llvm.memcpy.p0.p0.i64(ptr noundef nonnull align 1 dereferenceable(17) %8, ptr noundef nonnull align 1 dereferenceable(17) @.str.748, i64 17, i1 false)
  %16 = load ptr, ptr %7, align 8
  %17 = getelementptr inbounds i8, ptr %16, i64 17
  store ptr %17, ptr %7, align 8
  br label %_ZN4llvm11raw_ostreamlsEPKc.exit

_ZN4llvm11raw_ostreamlsEPKc.exit:                 ; preds = %13, %15
  %.0.i.i = phi ptr [ %14, %13 ], [ %1, %15 ]
  %18 = getelementptr inbounds nuw i8, ptr %0, i64 96
  call void @_ZNSt7__cxx1112basic_stringIcSt11char_traitsIcESaIcEEC1ERKS4_(ptr noundef nonnull align 8 dereferenceable(32) %3, ptr noundef nonnull align 8 dereferenceable(32) %18) #22
  %19 = call noundef ptr @_ZNKSt7__cxx1112basic_stringIcSt11char_traitsIcESaIcEE4dataEv(ptr noundef nonnull align 8 dereferenceable(32) %3) #22
  %20 = call noundef i64 @_ZNKSt7__cxx1112basic_stringIcSt11char_traitsIcESaIcEE6lengthEv(ptr noundef nonnull align 8 dereferenceable(32) %3) #22
  %21 = call noundef nonnull align 8 dereferenceable(48) ptr @_ZN4llvm11raw_ostream5writeEPKcm(ptr noundef nonnull align 8 dereferenceable(48) %.0.i.i, ptr noundef %19, i64 noundef %20) #22
  %22 = getelementptr inbounds nuw i8, ptr %21, i64 24
  %23 = load ptr, ptr %22, align 8
  %24 = getelementptr inbounds nuw i8, ptr %21, i64 32
  %25 = load ptr, ptr %24, align 8
  %26 = ptrtoint ptr %23 to i64
  %27 = ptrtoint ptr %25 to i64
  %28 = sub i64 %26, %27
  %29 = icmp ult i64 %28, 8
  br i1 %29, label %30, label %32

30:                                               ; preds = %_ZN4llvm11raw_ostreamlsEPKc.exit
  %31 = call noundef nonnull align 8 dereferenceable(48) ptr @_ZN4llvm11raw_ostream5writeEPKcm(ptr noundef nonnull align 8 dereferenceable(48) %21, ptr noundef nonnull @.str.749, i64 noundef 8) #22
  br label %_ZN4llvm11raw_ostreamlsEPKc.exit8

32:                                               ; preds = %_ZN4llvm11raw_ostreamlsEPKc.exit
  store i64 8389209267074581536, ptr %25, align 1
  %33 = load ptr, ptr %24, align 8
  %34 = getelementptr inbounds i8, ptr %33, i64 8
  store ptr %34, ptr %24, align 8
  br label %_ZN4llvm11raw_ostreamlsEPKc.exit8

_ZN4llvm11raw_ostreamlsEPKc.exit8:                ; preds = %30, %32
  %.0.i.i7 = phi ptr [ %31, %30 ], [ %21, %32 ]
  %35 = getelementptr inbounds nuw i8, ptr %0, i64 40
  %36 = call noundef ptr @_ZNKSt7__cxx1112basic_stringIcSt11char_traitsIcESaIcEE4dataEv(ptr noundef nonnull align 8 dereferenceable(32) %35) #22
  %37 = call noundef i64 @_ZNKSt7__cxx1112basic_stringIcSt11char_traitsIcESaIcEE6lengthEv(ptr noundef nonnull align 8 dereferenceable(32) %35) #22
  %38 = getelementptr inbounds nuw i8, ptr %.0.i.i7, i64 24
  %39 = load ptr, ptr %38, align 8
  %40 = getelementptr inbounds nuw i8, ptr %.0.i.i7, i64 32
  %41 = load ptr, ptr %40, align 8
  %42 = ptrtoint ptr %39 to i64
  %43 = ptrtoint ptr %41 to i64
  %44 = sub i64 %42, %43
  %45 = icmp ugt i64 %37, %44
  br i1 %45, label %46, label %48

46:                                               ; preds = %_ZN4llvm11raw_ostreamlsEPKc.exit8
  %47 = call noundef nonnull align 8 dereferenceable(48) ptr @_ZN4llvm11raw_ostream5writeEPKcm(ptr noundef nonnull align 8 dereferenceable(48) %.0.i.i7, ptr noundef %36, i64 noundef %37) #22
  %.phi.trans.insert = getelementptr inbounds nuw i8, ptr %47, i64 32
  %.pre = load ptr, ptr %.phi.trans.insert, align 8
  br label %_ZN4llvm11raw_ostreamlsENS_9StringRefE.exit

48:                                               ; preds = %_ZN4llvm11raw_ostreamlsEPKc.exit8
  %.not.i = icmp eq i64 %37, 0
  br i1 %.not.i, label %_ZN4llvm11raw_ostreamlsENS_9StringRefE.exit, label %49

49:                                               ; preds = %48
  call void @llvm.memcpy.p0.p0.i64(ptr align 1 %41, ptr align 1 %36, i64 %37, i1 false)
  %50 = load ptr, ptr %40, align 8
  %51 = getelementptr inbounds i8, ptr %50, i64 %37
  store ptr %51, ptr %40, align 8
  br label %_ZN4llvm11raw_ostreamlsENS_9StringRefE.exit

_ZN4llvm11raw_ostreamlsENS_9StringRefE.exit:      ; preds = %46, %48, %49
  %52 = phi ptr [ %.pre, %46 ], [ %51, %49 ], [ %41, %48 ]
  %.0.i = phi ptr [ %47, %46 ], [ %.0.i.i7, %49 ], [ %.0.i.i7, %48 ]
  %53 = getelementptr inbounds nuw i8, ptr %.0.i, i64 24
  %54 = load ptr, ptr %53, align 8
  %55 = ptrtoint ptr %54 to i64
  %56 = ptrtoint ptr %52 to i64
  %57 = sub i64 %55, %56
  %58 = icmp ult i64 %57, 3
  br i1 %58, label %59, label %61

59:                                               ; preds = %_ZN4llvm11raw_ostreamlsENS_9StringRefE.exit
  %60 = call noundef nonnull align 8 dereferenceable(48) ptr @_ZN4llvm11raw_ostream5writeEPKcm(ptr noundef nonnull align 8 dereferenceable(48) %.0.i, ptr noundef nonnull @.str.346, i64 noundef 3) #22
  br label %_ZN4llvm11raw_ostreamlsEPKc.exit11

61:                                               ; preds = %_ZN4llvm11raw_ostreamlsENS_9StringRefE.exit
  %62 = getelementptr inbounds nuw i8, ptr %.0.i, i64 32
  call void @llvm.memcpy.p0.p0.i64(ptr noundef nonnull align 1 dereferenceable(3) %52, ptr noundef nonnull align 1 dereferenceable(3) @.str.346, i64 3, i1 false)
  %63 = load ptr, ptr %62, align 8
  %64 = getelementptr inbounds i8, ptr %63, i64 3
  store ptr %64, ptr %62, align 8
  br label %_ZN4llvm11raw_ostreamlsEPKc.exit11

_ZN4llvm11raw_ostreamlsEPKc.exit11:               ; preds = %59, %61
  call void @_ZNSt7__cxx1112basic_stringIcSt11char_traitsIcESaIcEED1Ev(ptr noundef nonnull align 8 dereferenceable(32) %3) #22
  call void @_ZNSt7__cxx1112basic_stringIcSt11char_traitsIcESaIcEEC1ERKS4_(ptr noundef nonnull align 8 dereferenceable(32) %4, ptr noundef nonnull align 8 dereferenceable(32) %18) #22
  %65 = call noundef i32 @_ZNKSt7__cxx1112basic_stringIcSt11char_traitsIcESaIcEE7compareEPKc(ptr noundef nonnull align 8 dereferenceable(32) %4, ptr noundef nonnull @.str.539) #22
  %66 = icmp eq i32 %65, 0
  call void @_ZNSt7__cxx1112basic_stringIcSt11char_traitsIcESaIcEED1Ev(ptr noundef nonnull align 8 dereferenceable(32) %4) #22
  %67 = getelementptr inbounds nuw i8, ptr %0, i64 128
  %68 = load i64, ptr %67, align 8
  br i1 %66, label %69, label %83

69:                                               ; preds = %_ZN4llvm11raw_ostreamlsEPKc.exit11
  %.not = icmp eq i64 %68, 0
  %70 = select i1 %.not, ptr @.str.61, ptr @.str.60
  %71 = select i1 %.not, i64 5, i64 4
  %72 = load ptr, ptr %5, align 8
  %73 = load ptr, ptr %7, align 8
  %74 = ptrtoint ptr %72 to i64
  %75 = ptrtoint ptr %73 to i64
  %76 = sub i64 %74, %75
  %77 = icmp ugt i64 %71, %76
  br i1 %77, label %78, label %80

78:                                               ; preds = %69
  %79 = call noundef nonnull align 8 dereferenceable(48) ptr @_ZN4llvm11raw_ostream5writeEPKcm(ptr noundef nonnull align 8 dereferenceable(48) %1, ptr noundef nonnull %70, i64 noundef %71) #22
  br label %_ZN4llvm11raw_ostreamlsEPKc.exit14

80:                                               ; preds = %69
  call void @llvm.memcpy.p0.p0.i64(ptr noundef nonnull align 1 dereferenceable(4) %73, ptr noundef nonnull align 1 dereferenceable(4) %70, i64 %71, i1 false)
  %81 = load ptr, ptr %7, align 8
  %82 = getelementptr inbounds i8, ptr %81, i64 %71
  store ptr %82, ptr %7, align 8
  br label %_ZN4llvm11raw_ostreamlsEPKc.exit14

83:                                               ; preds = %_ZN4llvm11raw_ostreamlsEPKc.exit11
  %84 = call noundef nonnull align 8 dereferenceable(48) ptr @_ZN4llvm11raw_ostreamlsEl(ptr noundef nonnull align 8 dereferenceable(48) %1, i64 noundef %68) #22
  br label %_ZN4llvm11raw_ostreamlsEPKc.exit14

_ZN4llvm11raw_ostreamlsEPKc.exit14:               ; preds = %80, %78, %83
  %85 = load ptr, ptr %5, align 8
  %86 = load ptr, ptr %7, align 8
  %87 = icmp eq ptr %85, %86
  br i1 %87, label %88, label %90

88:                                               ; preds = %_ZN4llvm11raw_ostreamlsEPKc.exit14
  %89 = call noundef nonnull align 8 dereferenceable(48) ptr @_ZN4llvm11raw_ostream5writeEPKcm(ptr noundef nonnull align 8 dereferenceable(48) %1, ptr noundef nonnull @.str.246, i64 noundef 1) #22
  br label %_ZN4llvm11raw_ostreamlsEPKc.exit17

90:                                               ; preds = %_ZN4llvm11raw_ostreamlsEPKc.exit14
  store i8 59, ptr %86, align 1
  %91 = load ptr, ptr %7, align 8
  %92 = getelementptr inbounds i8, ptr %91, i64 1
  store ptr %92, ptr %7, align 8
  br label %_ZN4llvm11raw_ostreamlsEPKc.exit17

_ZN4llvm11raw_ostreamlsEPKc.exit17:               ; preds = %88, %90
  ret void
}